; Function Attrs: mustprogress uwtable
define internal void @_ZL14eventfd_createP14grpc_wakeup_fd(ptr dead_on_unwind noalias writable writeonly sret(%"class.absl::lts_20240722::Status") align 8 captures(none) %0, ptr noundef writeonly captures(none) initializes((0, 8)) %1) #3 personality ptr @__gxx_personality_v0 {
  %3 = alloca %"class.absl::lts_20240722::log_internal::LogMessageFatal", align 8
  %4 = alloca %"class.absl::lts_20240722::Status", align 8
  %5 = alloca %"class.grpc_core::DebugLocation", align 1
  %6 = tail call i32 @eventfd(i32 noundef 0, i32 noundef 526336) #13
  store i32 %6, ptr %1, align 4, !tbaa !3
  %7 = getelementptr inbounds nuw i8, ptr %1, i64 4
  store i32 -1, ptr %7, align 4, !tbaa !8
  %8 = icmp slt i32 %6, 0
  br i1 %8, label %9, label %17

9:                                                ; preds = %2
  call void @llvm.lifetime.start.p0(i64 1, ptr nonnull %5) #13
  %10 = tail call ptr @__errno_location() #14
  %11 = load i32, ptr %10, align 4, !tbaa !9
  call void @_Z13grpc_os_errorRKN9grpc_core13DebugLocationEiPKc(ptr dead_on_unwind nonnull writable sret(%"class.absl::lts_20240722::Status") align 8 %4, ptr noundef nonnull align 1 dereferenceable(1) %5, i32 noundef %11, ptr noundef nonnull @.str.1)
  call void @llvm.experimental.noalias.scope.decl(metadata !10)
  %12 = load i64, ptr %4, align 8, !tbaa !13, !noalias !10
  %13 = icmp eq i64 %12, 1
  br i1 %13, label %14, label %_ZN4absl12lts_202407226StatusD2Ev.exit, !prof !16

14:                                               ; preds = %9
  call void @llvm.lifetime.start.p0(i64 16, ptr nonnull %3) #13, !noalias !10
  invoke void @_ZN4absl12lts_2024072212log_internal15LogMessageFatalC1EPKciSt17basic_string_viewIcSt11char_traitsIcEE(ptr noundef nonnull align 8 dereferenceable(16) %3, ptr noundef nonnull @.str.2, i32 noundef 75, i64 11, ptr nonnull @.str.3) #15
          to label %.noexc unwind label %15

.noexc:                                           ; preds = %14
  call void @_ZN4absl12lts_2024072212log_internal15LogMessageFatalD1Ev(ptr noundef nonnull align 8 dereferenceable(16) %3) #16, !noalias !10
  unreachable

_ZN4absl12lts_202407226StatusD2Ev.exit:           ; preds = %9
  store i64 %12, ptr %0, align 8, !tbaa !13, !alias.scope !10
  call void @llvm.lifetime.end.p0(i64 1, ptr nonnull %5) #13
  br label %18

15:                                               ; preds = %14
  %16 = landingpad { ptr, i32 }
          cleanup
  call void @_ZN4absl12lts_202407226StatusD2Ev(ptr noundef nonnull align 8 dereferenceable(8) %4) #13
  call void @llvm.lifetime.end.p0(i64 1, ptr nonnull %5) #13
  resume { ptr, i32 } %16

17:                                               ; preds = %2
  store i64 1, ptr %0, align 8, !tbaa !13, !alias.scope !17
  br label %18

18:                                               ; preds = %17, %_ZN4absl12lts_202407226StatusD2Ev.exit
  ret void
}